target datalayout = "e-m:e-p270:32:32-p271:32:32-p272:64:64-i64:64-i128:128-f80:128-n8:16:32:64-S128"
target triple = "x86_64-unknown-linux-gnu"

@had_conf_error = internal global i8 0, align 1
@.str.155 = private unnamed_addr constant [27 x i8] c"<jemalloc>: %s: %.*s:%.*s\0A\00", align 1
@.str.156 = private unnamed_addr constant [14 x i8] c"experimental_\00", align 1

; Function Attrs: nounwind uwtable
define internal void @malloc_conf_error(ptr noundef %msg, ptr noundef %k, i64 noundef %klen, ptr noundef %v, i64 noundef %vlen) #0 {
entry:
  %msg.addr = alloca ptr, align 8
  %k.addr = alloca ptr, align 8
  %klen.addr = alloca i64, align 8
  %v.addr = alloca ptr, align 8
  %vlen.addr = alloca i64, align 8
  %experimental = alloca ptr, align 8
  store ptr %msg, ptr %msg.addr, align 8
  store ptr %k, ptr %k.addr, align 8
  store i64 %klen, ptr %klen.addr, align 8
  store ptr %v, ptr %v.addr, align 8
  store i64 %vlen, ptr %vlen.addr, align 8
  %0 = load ptr, ptr %msg.addr, align 8
  %1 = load i64, ptr %klen.addr, align 8
  %conv = trunc i64 %1 to i32
  %2 = load ptr, ptr %k.addr, align 8
  %3 = load i64, ptr %vlen.addr, align 8
  %conv1 = trunc i64 %3 to i32
  %4 = load ptr, ptr %v.addr, align 8
  call void (ptr, ...) @malloc_printf(ptr noundef @.str.155, ptr noundef %0, i32 noundef %conv, ptr noundef %2, i32 noundef %conv1, ptr noundef %4)
  store ptr @.str.156, ptr %experimental, align 8
  %5 = load ptr, ptr %k.addr, align 8
  %6 = load ptr, ptr %experimental, align 8
  %7 = load ptr, ptr %experimental, align 8
  %call = call i64 @strlen(ptr noundef %7) #18
  %call2 = call i32 @strncmp(ptr noundef %5, ptr noundef %6, i64 noundef %call) #18
  %cmp = icmp eq i32 %call2, 0
  br i1 %cmp, label %if.then, label %if.end

if.then:                                          ; preds = %entry
  br label %return

if.end:                                           ; preds = %entry
  store i8 1, ptr @had_conf_error, align 1
  br label %return

return:                                           ; preds = %if.end, %if.then
  ret void
}