; Function Attrs: nounwind uwtable
define internal fastcc void @malloc_conf_error(ptr noundef %msg, ptr noundef %k, i64 noundef %klen, ptr noundef %v, i64 noundef %vlen) unnamed_addr #1 {
entry:
  %conv = trunc i64 %klen to i32
  %conv1 = trunc i64 %vlen to i32
  tail call void (ptr, ...) @malloc_printf(ptr noundef nonnull @.str.155, ptr noundef %msg, i32 noundef %conv, ptr noundef %k, i32 noundef %conv1, ptr noundef %v) #19
  %call2 = tail call i32 @strncmp(ptr noundef nonnull dereferenceable(1) %k, ptr noundef nonnull dereferenceable(14) @.str.156, i64 noundef 13) #23
  %cmp = icmp eq i32 %call2, 0
  br i1 %cmp, label %return, label %if.end

if.end:                                           ; preds = %entry
  store i1 true, ptr @had_conf_error, align 1
  br label %return

return:                                           ; preds = %entry, %if.end
  ret void
}